target datalayout = "e-m:e-p270:32:32-p271:32:32-p272:64:64-i64:64-i128:128-f80:128-n8:16:32:64-S128"
target triple = "x86_64-pc-linux-gnu"

%struct.alts_frame_writer = type { ptr, [8 x i8], i64, i64, i64 }

; Function Attrs: inlinehint mustprogress nounwind uwtable
define linkonce_odr noundef nonnull align 8 dereferenceable(8) ptr @_ZSt3minImERKT_S2_S2_(ptr noundef nonnull align 8 dereferenceable(8) %0, ptr noundef nonnull align 8 dereferenceable(8) %1) #5 comdat {
  %3 = alloca ptr, align 8
  %4 = alloca ptr, align 8
  %5 = alloca ptr, align 8
  store ptr %0, ptr %4, align 8, !tbaa !24
  store ptr %1, ptr %5, align 8, !tbaa !24
  %6 = load ptr, ptr %5, align 8, !tbaa !24
  %7 = load i64, ptr %6, align 8, !tbaa !10
  %8 = load ptr, ptr %4, align 8, !tbaa !24
  %9 = load i64, ptr %8, align 8, !tbaa !10
  %10 = icmp ult i64 %7, %9
  br i1 %10, label %11, label %13

11:                                               ; preds = %2
  %12 = load ptr, ptr %5, align 8, !tbaa !24
  store ptr %12, ptr %3, align 8
  br label %15

13:                                               ; preds = %2
  %14 = load ptr, ptr %4, align 8, !tbaa !24
  store ptr %14, ptr %3, align 8
  br label %15

15:                                               ; preds = %13, %11
  %16 = load ptr, ptr %3, align 8
  ret ptr %16
}

; Function Attrs: mustprogress nounwind uwtable
define noundef zeroext i1 @_Z25alts_is_frame_writer_doneP17alts_frame_writer(ptr noundef %0) #2 {
  %2 = alloca ptr, align 8
  store ptr %0, ptr %2, align 8, !tbaa !3
  %3 = load ptr, ptr %2, align 8, !tbaa !3
  %4 = getelementptr inbounds nuw %struct.alts_frame_writer, ptr %3, i32 0, i32 0
  %5 = load ptr, ptr %4, align 8, !tbaa !12
  %6 = icmp eq ptr %5, null
  br i1 %6, label %15, label %7

7:                                                ; preds = %1
  %8 = load ptr, ptr %2, align 8, !tbaa !3
  %9 = getelementptr inbounds nuw %struct.alts_frame_writer, ptr %8, i32 0, i32 4
  %10 = load i64, ptr %9, align 8, !tbaa !14
  %11 = load ptr, ptr %2, align 8, !tbaa !3
  %12 = getelementptr inbounds nuw %struct.alts_frame_writer, ptr %11, i32 0, i32 2
  %13 = load i64, ptr %12, align 8, !tbaa !15
  %14 = icmp eq i64 %10, %13
  br label %15

15:                                               ; preds = %7, %1
  %16 = phi i1 [ true, %1 ], [ %14, %7 ]
  ret i1 %16
}

; Function Attrs: mustprogress uwtable
define noundef zeroext i1 @_Z22alts_write_frame_bytesP17alts_frame_writerPhPm(ptr noundef %0, ptr noundef %1, ptr noundef %2) #0 {
  %4 = alloca i1, align 1
  %5 = alloca ptr, align 8
  %6 = alloca ptr, align 8
  %7 = alloca ptr, align 8
  %8 = alloca i64, align 8
  %9 = alloca i64, align 8
  %10 = alloca i64, align 8
  %11 = alloca i32, align 4
  %12 = alloca i64, align 8
  %13 = alloca i64, align 8
  store ptr %0, ptr %5, align 8, !tbaa !3
  store ptr %1, ptr %6, align 8, !tbaa !8
  store ptr %2, ptr %7, align 8, !tbaa !24
  %14 = load ptr, ptr %7, align 8, !tbaa !24
  %15 = icmp eq ptr %14, null
  br i1 %15, label %19, label %16

16:                                               ; preds = %3
  %17 = load ptr, ptr %6, align 8, !tbaa !8
  %18 = icmp eq ptr %17, null
  br i1 %18, label %19, label %20

19:                                               ; preds = %16, %3
  store i1 false, ptr %4, align 1
  br label %105

20:                                               ; preds = %16
  %21 = load ptr, ptr %5, align 8, !tbaa !3
  %22 = call noundef zeroext i1 @_Z25alts_is_frame_writer_doneP17alts_frame_writer(ptr noundef %21)
  br i1 %22, label %23, label %25

23:                                               ; preds = %20
  %24 = load ptr, ptr %7, align 8, !tbaa !24
  store i64 0, ptr %24, align 8, !tbaa !10
  store i1 true, ptr %4, align 1
  br label %105

25:                                               ; preds = %20
  call void @llvm.lifetime.start.p0(i64 8, ptr %8) #10
  store i64 0, ptr %8, align 8, !tbaa !10
  %26 = load ptr, ptr %5, align 8, !tbaa !3
  %27 = getelementptr inbounds nuw %struct.alts_frame_writer, ptr %26, i32 0, i32 3
  %28 = load i64, ptr %27, align 8, !tbaa !16
  %29 = icmp ne i64 %28, 8
  br i1 %29, label %30, label %73

30:                                               ; preds = %25
  call void @llvm.lifetime.start.p0(i64 8, ptr %9) #10
  %31 = load ptr, ptr %7, align 8, !tbaa !24
  call void @llvm.lifetime.start.p0(i64 8, ptr %10) #10
  %32 = load ptr, ptr %5, align 8, !tbaa !3
  %33 = getelementptr inbounds nuw %struct.alts_frame_writer, ptr %32, i32 0, i32 3
  %34 = load i64, ptr %33, align 8, !tbaa !16
  %35 = sub i64 8, %34
  store i64 %35, ptr %10, align 8, !tbaa !10
  %36 = call noundef nonnull align 8 dereferenceable(8) ptr @_ZSt3minImERKT_S2_S2_(ptr noundef nonnull align 8 dereferenceable(8) %31, ptr noundef nonnull align 8 dereferenceable(8) %10)
  %37 = load i64, ptr %36, align 8, !tbaa !10
  call void @llvm.lifetime.end.p0(i64 8, ptr %10) #10
  store i64 %37, ptr %9, align 8, !tbaa !10
  %38 = load ptr, ptr %6, align 8, !tbaa !8
  %39 = load ptr, ptr %5, align 8, !tbaa !3
  %40 = getelementptr inbounds nuw %struct.alts_frame_writer, ptr %39, i32 0, i32 1
  %41 = getelementptr inbounds [8 x i8], ptr %40, i64 0, i64 0
  %42 = load ptr, ptr %5, align 8, !tbaa !3
  %43 = getelementptr inbounds nuw %struct.alts_frame_writer, ptr %42, i32 0, i32 3
  %44 = load i64, ptr %43, align 8, !tbaa !16
  %45 = getelementptr inbounds nuw i8, ptr %41, i64 %44
  %46 = load i64, ptr %9, align 8, !tbaa !10
  call void @llvm.memcpy.p0.p0.i64(ptr align 1 %38, ptr align 1 %45, i64 %46, i1 false)
  %47 = load i64, ptr %9, align 8, !tbaa !10
  %48 = load i64, ptr %8, align 8, !tbaa !10
  %49 = add i64 %48, %47
  store i64 %49, ptr %8, align 8, !tbaa !10
  %50 = load i64, ptr %9, align 8, !tbaa !10
  %51 = load ptr, ptr %7, align 8, !tbaa !24
  %52 = load i64, ptr %51, align 8, !tbaa !10
  %53 = sub i64 %52, %50
  store i64 %53, ptr %51, align 8, !tbaa !10
  %54 = load i64, ptr %9, align 8, !tbaa !10
  %55 = load ptr, ptr %5, align 8, !tbaa !3
  %56 = getelementptr inbounds nuw %struct.alts_frame_writer, ptr %55, i32 0, i32 3
  %57 = load i64, ptr %56, align 8, !tbaa !16
  %58 = add i64 %57, %54
  store i64 %58, ptr %56, align 8, !tbaa !16
  %59 = load i64, ptr %9, align 8, !tbaa !10
  %60 = load ptr, ptr %6, align 8, !tbaa !8
  %61 = getelementptr inbounds nuw i8, ptr %60, i64 %59
  store ptr %61, ptr %6, align 8, !tbaa !8
  %62 = load ptr, ptr %5, align 8, !tbaa !3
  %63 = getelementptr inbounds nuw %struct.alts_frame_writer, ptr %62, i32 0, i32 3
  %64 = load i64, ptr %63, align 8, !tbaa !16
  %65 = icmp ne i64 %64, 8
  br i1 %65, label %66, label %69

66:                                               ; preds = %30
  %67 = load i64, ptr %8, align 8, !tbaa !10
  %68 = load ptr, ptr %7, align 8, !tbaa !24
  store i64 %67, ptr %68, align 8, !tbaa !10
  store i1 true, ptr %4, align 1
  store i32 1, ptr %11, align 4
  br label %70

69:                                               ; preds = %30
  store i32 0, ptr %11, align 4
  br label %70

70:                                               ; preds = %69, %66
  call void @llvm.lifetime.end.p0(i64 8, ptr %9) #10
  %71 = load i32, ptr %11, align 4
  switch i32 %71, label %104 [
    i32 0, label %72
  ]

72:                                               ; preds = %70
  br label %73

73:                                               ; preds = %72, %25
  call void @llvm.lifetime.start.p0(i64 8, ptr %12) #10
  call void @llvm.lifetime.start.p0(i64 8, ptr %13) #10
  %74 = load ptr, ptr %5, align 8, !tbaa !3
  %75 = getelementptr inbounds nuw %struct.alts_frame_writer, ptr %74, i32 0, i32 4
  %76 = load i64, ptr %75, align 8, !tbaa !14
  %77 = load ptr, ptr %5, align 8, !tbaa !3
  %78 = getelementptr inbounds nuw %struct.alts_frame_writer, ptr %77, i32 0, i32 2
  %79 = load i64, ptr %78, align 8, !tbaa !15
  %80 = sub i64 %76, %79
  store i64 %80, ptr %13, align 8, !tbaa !10
  %81 = load ptr, ptr %7, align 8, !tbaa !24
  %82 = call noundef nonnull align 8 dereferenceable(8) ptr @_ZSt3minImERKT_S2_S2_(ptr noundef nonnull align 8 dereferenceable(8) %13, ptr noundef nonnull align 8 dereferenceable(8) %81)
  %83 = load i64, ptr %82, align 8, !tbaa !10
  call void @llvm.lifetime.end.p0(i64 8, ptr %13) #10
  store i64 %83, ptr %12, align 8, !tbaa !10
  %84 = load ptr, ptr %6, align 8, !tbaa !8
  %85 = load ptr, ptr %5, align 8, !tbaa !3
  %86 = getelementptr inbounds nuw %struct.alts_frame_writer, ptr %85, i32 0, i32 0
  %87 = load ptr, ptr %86, align 8, !tbaa !12
  %88 = load i64, ptr %12, align 8, !tbaa !10
  call void @llvm.memcpy.p0.p0.i64(ptr align 1 %84, ptr align 1 %87, i64 %88, i1 false)
  %89 = load i64, ptr %12, align 8, !tbaa !10
  %90 = load ptr, ptr %5, align 8, !tbaa !3
  %91 = getelementptr inbounds nuw %struct.alts_frame_writer, ptr %90, i32 0, i32 0
  %92 = load ptr, ptr %91, align 8, !tbaa !12
  %93 = getelementptr inbounds nuw i8, ptr %92, i64 %89
  store ptr %93, ptr %91, align 8, !tbaa !12
  %94 = load i64, ptr %12, align 8, !tbaa !10
  %95 = load i64, ptr %8, align 8, !tbaa !10
  %96 = add i64 %95, %94
  store i64 %96, ptr %8, align 8, !tbaa !10
  %97 = load i64, ptr %12, align 8, !tbaa !10
  %98 = load ptr, ptr %5, align 8, !tbaa !3
  %99 = getelementptr inbounds nuw %struct.alts_frame_writer, ptr %98, i32 0, i32 2
  %100 = load i64, ptr %99, align 8, !tbaa !15
  %101 = add i64 %100, %97
  store i64 %101, ptr %99, align 8, !tbaa !15
  %102 = load i64, ptr %8, align 8, !tbaa !10
  %103 = load ptr, ptr %7, align 8, !tbaa !24
  store i64 %102, ptr %103, align 8, !tbaa !10
  store i1 true, ptr %4, align 1
  store i32 1, ptr %11, align 4
  call void @llvm.lifetime.end.p0(i64 8, ptr %12) #10
  br label %104

104:                                              ; preds = %73, %70
  call void @llvm.lifetime.end.p0(i64 8, ptr %8) #10
  br label %105

105:                                              ; preds = %104, %23, %19
  %106 = load i1, ptr %4, align 1
  ret i1 %106
}