; Function Attrs: mustprogress nofree norecurse nosync nounwind willreturn memory(readwrite, inaccessiblemem: none) uwtable
define noundef zeroext i1 @_Z22alts_write_frame_bytesP17alts_frame_writerPhPm(ptr noundef captures(none) %0, ptr noundef writeonly %1, ptr noundef %2) local_unnamed_addr #4 {
  %4 = icmp ne ptr %2, null
  %5 = icmp ne ptr %1, null
  %or.cond.not = and i1 %5, %4
  br i1 %or.cond.not, label %6, label %37

6:                                                ; preds = %3
  %7 = load ptr, ptr %0, align 8, !tbaa !7
  %8 = icmp eq ptr %7, null
  br i1 %8, label %.sink.split, label %_Z25alts_is_frame_writer_doneP17alts_frame_writer.exit

_Z25alts_is_frame_writer_doneP17alts_frame_writer.exit: ; preds = %6
  %9 = getelementptr inbounds nuw i8, ptr %0, i64 32
  %10 = load i64, ptr %9, align 8, !tbaa !11
  %11 = getelementptr inbounds nuw i8, ptr %0, i64 16
  %12 = load i64, ptr %11, align 8, !tbaa !13
  %13 = icmp eq i64 %10, %12
  br i1 %13, label %.sink.split, label %14

14:                                               ; preds = %_Z25alts_is_frame_writer_doneP17alts_frame_writer.exit
  %15 = getelementptr inbounds nuw i8, ptr %0, i64 24
  %16 = load i64, ptr %15, align 8, !tbaa !14
  %.not = icmp eq i64 %16, 8
  br i1 %.not, label %.critedge, label %17

17:                                               ; preds = %14
  %18 = sub i64 8, %16
  %19 = load i64, ptr %2, align 8, !tbaa !3
  %.sroa.speculated49 = tail call i64 @llvm.umin.i64(i64 %18, i64 %19)
  %20 = getelementptr inbounds nuw i8, ptr %0, i64 8
  %21 = getelementptr inbounds nuw i8, ptr %20, i64 %16
  tail call void @llvm.memcpy.p0.p0.i64(ptr nonnull align 1 %1, ptr nonnull align 1 %21, i64 %.sroa.speculated49, i1 false)
  %22 = load i64, ptr %2, align 8, !tbaa !3
  %23 = sub i64 %22, %.sroa.speculated49
  store i64 %23, ptr %2, align 8, !tbaa !3
  %24 = load i64, ptr %15, align 8, !tbaa !14
  %25 = add i64 %24, %.sroa.speculated49
  store i64 %25, ptr %15, align 8, !tbaa !14
  %.not43 = icmp eq i64 %25, 8
  br i1 %.not43, label %..critedge_crit_edge, label %.sink.split

..critedge_crit_edge:                             ; preds = %17
  %26 = getelementptr inbounds nuw i8, ptr %1, i64 %.sroa.speculated49
  %.pre = load i64, ptr %9, align 8, !tbaa !11
  %.pre52 = load i64, ptr %11, align 8, !tbaa !13
  %.pre53 = load ptr, ptr %0, align 8, !tbaa !7
  br label %.critedge

.critedge:                                        ; preds = %..critedge_crit_edge, %14
  %27 = phi ptr [ %7, %14 ], [ %.pre53, %..critedge_crit_edge ]
  %28 = phi i64 [ %12, %14 ], [ %.pre52, %..critedge_crit_edge ]
  %29 = phi i64 [ %10, %14 ], [ %.pre, %..critedge_crit_edge ]
  %.040 = phi i64 [ 0, %14 ], [ %.sroa.speculated49, %..critedge_crit_edge ]
  %.039 = phi ptr [ %1, %14 ], [ %26, %..critedge_crit_edge ]
  %30 = sub i64 %29, %28
  %31 = load i64, ptr %2, align 8, !tbaa !3
  %.sroa.speculated = tail call i64 @llvm.umin.i64(i64 %31, i64 %30)
  tail call void @llvm.memcpy.p0.p0.i64(ptr align 1 %.039, ptr align 1 %27, i64 %.sroa.speculated, i1 false)
  %32 = load ptr, ptr %0, align 8, !tbaa !7
  %33 = getelementptr inbounds nuw i8, ptr %32, i64 %.sroa.speculated
  store ptr %33, ptr %0, align 8, !tbaa !7
  %34 = add i64 %.sroa.speculated, %.040
  %35 = load i64, ptr %11, align 8, !tbaa !13
  %36 = add i64 %35, %.sroa.speculated
  store i64 %36, ptr %11, align 8, !tbaa !13
  br label %.sink.split

.sink.split:                                      ; preds = %17, %_Z25alts_is_frame_writer_doneP17alts_frame_writer.exit, %6, %.critedge
  %.sroa.speculated49.sink = phi i64 [ %34, %.critedge ], [ 0, %6 ], [ 0, %_Z25alts_is_frame_writer_doneP17alts_frame_writer.exit ], [ %.sroa.speculated49, %17 ]
  store i64 %.sroa.speculated49.sink, ptr %2, align 8, !tbaa !3
  br label %37

37:                                               ; preds = %.sink.split, %3
  ret i1 %or.cond.not
}